target datalayout = "e-m:e-p270:32:32-p271:32:32-p272:64:64-i64:64-i128:128-f80:128-n8:16:32:64-S128"
target triple = "x86_64-pc-linux-gnu"

%struct._lv_image_cache_data_t = type { %struct._lv_cache_slot_size_t, ptr, i32, ptr, ptr, ptr }
%struct._lv_cache_slot_size_t = type { i64 }

; Function Attrs: nounwind uwtable
define internal void @image_cache_free_cb(ptr noundef %0, ptr noundef %1) #0 {
  %3 = alloca ptr, align 8
  %4 = alloca ptr, align 8
  %5 = alloca ptr, align 8
  store ptr %0, ptr %3, align 8, !tbaa !35
  store ptr %1, ptr %4, align 8, !tbaa !43
  call void @llvm.lifetime.start.p0(i64 8, ptr %5) #5
  %6 = load ptr, ptr %3, align 8, !tbaa !35
  %7 = getelementptr inbounds nuw %struct._lv_image_cache_data_t, ptr %6, i32 0, i32 3
  %8 = load ptr, ptr %7, align 8, !tbaa !44
  store ptr %8, ptr %5, align 8, !tbaa !45
  %9 = load ptr, ptr %5, align 8, !tbaa !45
  %10 = call zeroext i1 @lv_draw_buf_has_flag(ptr noundef %9, i32 noundef 16)
  br i1 %10, label %11, label %13

11:                                               ; preds = %2
  %12 = load ptr, ptr %5, align 8, !tbaa !45
  call void @lv_draw_buf_destroy(ptr noundef %12)
  br label %13

13:                                               ; preds = %11, %2
  %14 = load ptr, ptr %3, align 8, !tbaa !35
  %15 = getelementptr inbounds nuw %struct._lv_image_cache_data_t, ptr %14, i32 0, i32 2
  %16 = load i32, ptr %15, align 8, !tbaa !42
  %17 = icmp eq i32 %16, 1
  br i1 %17, label %18, label %22

18:                                               ; preds = %13
  %19 = load ptr, ptr %3, align 8, !tbaa !35
  %20 = getelementptr inbounds nuw %struct._lv_image_cache_data_t, ptr %19, i32 0, i32 1
  %21 = load ptr, ptr %20, align 8, !tbaa !37
  call void @lv_free(ptr noundef %21)
  br label %22

22:                                               ; preds = %18, %13
  call void @llvm.lifetime.end.p0(i64 8, ptr %5) #5
  ret void
}