; Function Attrs: nounwind uwtable
define internal void @image_cache_free_cb(ptr noundef readonly captures(none) %0, ptr readnone captures(none) %1) #0 {
  %3 = getelementptr inbounds nuw i8, ptr %0, i64 24
  %4 = load ptr, ptr %3, align 8, !tbaa !40
  %5 = tail call zeroext i1 @lv_draw_buf_has_flag(ptr noundef %4, i32 noundef 16) #4
  br i1 %5, label %6, label %7

6:                                                ; preds = %2
  tail call void @lv_draw_buf_destroy(ptr noundef %4) #4
  br label %7

7:                                                ; preds = %6, %2
  %8 = getelementptr inbounds nuw i8, ptr %0, i64 16
  %9 = load i32, ptr %8, align 8, !tbaa !39
  %10 = icmp eq i32 %9, 1
  br i1 %10, label %11, label %14

11:                                               ; preds = %7
  %12 = getelementptr inbounds nuw i8, ptr %0, i64 8
  %13 = load ptr, ptr %12, align 8, !tbaa !34
  tail call void @lv_free(ptr noundef %13) #4
  br label %14

14:                                               ; preds = %11, %7
  ret void
}